; Function Attrs: mustprogress nofree norecurse nosync nounwind willreturn memory(readwrite, argmem: none, inaccessiblemem: none) uwtable
define internal void @keyboardHandleRepeatInfo(ptr readnone captures(none) %0, ptr noundef readnone captures(address) %1, i32 noundef %2, i32 noundef %3) #12 {
  %5 = load ptr, ptr getelementptr inbounds nuw (i8, ptr @_glfw, i64 133944), align 8, !tbaa !357
  %.not = icmp eq ptr %1, %5
  br i1 %.not, label %6, label %7

6:                                                ; preds = %4
  store i32 %2, ptr getelementptr inbounds nuw (i8, ptr @_glfw, i64 134144), align 8, !tbaa !384
  store i32 %3, ptr getelementptr inbounds nuw (i8, ptr @_glfw, i64 134148), align 4, !tbaa !379
  br label %7

7:                                                ; preds = %4, %6
  ret void
}